target datalayout = "e-m:e-p270:32:32-p271:32:32-p272:64:64-i64:64-i128:128-f80:128-n8:16:32:64-S128"
target triple = "x86_64-pc-linux-gnu"

%struct.Vec_Int_t_ = type { i32, i32, ptr }
%struct.Vec_Flt_t_ = type { i32, i32, ptr }
%struct.Dam_Man_t_ = type { ptr, ptr, ptr, ptr, ptr, ptr, ptr, ptr, ptr, ptr, ptr, i64, i32, i32, i32, i32, i32 }
%struct.Hash_IntMan_t_ = type { ptr, ptr, i32 }
%struct.Hash_IntObj_t_ = type { i32, i32, i32, i32 }

@.str.5 = private unnamed_addr constant [2 x i8] c"\0A\00", align 1
@.str.14 = private unnamed_addr constant [15 x i8] c"Weight %9.2f  \00", align 1
@.str.18 = private unnamed_addr constant [17 x i8] c"Divisor queue: \0A\00", align 1
@.str.19 = private unnamed_addr constant [11 x i8] c"Div %7d : \00", align 1
@.str.20 = private unnamed_addr constant [10 x i8] c"F = %c%c \00", align 1
@.str.21 = private unnamed_addr constant [4 x i8] c"%c \00", align 1
@.str.22 = private unnamed_addr constant [8 x i8] c"%c%c   \00", align 1

; Function Attrs: inlinehint nounwind uwtable
define internal ptr @Vec_IntEntryP(ptr noundef %0, i32 noundef %1) #2 {
  %3 = alloca ptr, align 8
  %4 = alloca i32, align 4
  store ptr %0, ptr %3, align 8, !tbaa !3
  store i32 %1, ptr %4, align 4, !tbaa !8
  %5 = load ptr, ptr %3, align 8, !tbaa !3
  %6 = getelementptr inbounds nuw %struct.Vec_Int_t_, ptr %5, i32 0, i32 2
  %7 = load ptr, ptr %6, align 8, !tbaa !15
  %8 = load i32, ptr %4, align 4, !tbaa !8
  %9 = sext i32 %8 to i64
  %10 = getelementptr inbounds i32, ptr %7, i64 %9
  ret ptr %10
}

; Function Attrs: inlinehint nounwind uwtable
define internal ptr @Hash_IntObj(ptr noundef %0, i32 noundef %1) #2 {
  %3 = alloca ptr, align 8
  %4 = alloca i32, align 4
  store ptr %0, ptr %3, align 8, !tbaa !96
  store i32 %1, ptr %4, align 4, !tbaa !8
  %5 = load i32, ptr %4, align 4, !tbaa !8
  %6 = icmp ne i32 %5, 0
  br i1 %6, label %7, label %14

7:                                                ; preds = %2
  %8 = load ptr, ptr %3, align 8, !tbaa !96
  %9 = getelementptr inbounds nuw %struct.Hash_IntMan_t_, ptr %8, i32 0, i32 1
  %10 = load ptr, ptr %9, align 8, !tbaa !97
  %11 = load i32, ptr %4, align 4, !tbaa !8
  %12 = mul nsw i32 4, %11
  %13 = call ptr @Vec_IntEntryP(ptr noundef %10, i32 noundef %12)
  br label %15

14:                                               ; preds = %2
  br label %15

15:                                               ; preds = %14, %7
  %16 = phi ptr [ %13, %7 ], [ null, %14 ]
  ret ptr %16
}

; Function Attrs: inlinehint nounwind uwtable
define internal i32 @Vec_IntSize(ptr noundef %0) #2 {
  %2 = alloca ptr, align 8
  store ptr %0, ptr %2, align 8, !tbaa !3
  %3 = load ptr, ptr %2, align 8, !tbaa !3
  %4 = getelementptr inbounds nuw %struct.Vec_Int_t_, ptr %3, i32 0, i32 1
  %5 = load i32, ptr %4, align 4, !tbaa !12
  ret i32 %5
}

; Function Attrs: inlinehint nounwind uwtable
define internal i32 @Abc_Lit2Var(i32 noundef %0) #2 {
  %2 = alloca i32, align 4
  store i32 %0, ptr %2, align 4, !tbaa !8
  %3 = load i32, ptr %2, align 4, !tbaa !8
  %4 = ashr i32 %3, 1
  ret i32 %4
}

; Function Attrs: inlinehint nounwind uwtable
define internal i32 @Abc_LitIsCompl(i32 noundef %0) #2 {
  %2 = alloca i32, align 4
  store i32 %0, ptr %2, align 4, !tbaa !8
  %3 = load i32, ptr %2, align 4, !tbaa !8
  %4 = and i32 %3, 1
  ret i32 %4
}

; Function Attrs: inlinehint nounwind uwtable
define internal float @Vec_FltEntry(ptr noundef %0, i32 noundef %1) #2 {
  %3 = alloca ptr, align 8
  %4 = alloca i32, align 4
  store ptr %0, ptr %3, align 8, !tbaa !72
  store i32 %1, ptr %4, align 4, !tbaa !8
  %5 = load ptr, ptr %3, align 8, !tbaa !72
  %6 = getelementptr inbounds nuw %struct.Vec_Flt_t_, ptr %5, i32 0, i32 2
  %7 = load ptr, ptr %6, align 8, !tbaa !73
  %8 = load i32, ptr %4, align 4, !tbaa !8
  %9 = sext i32 %8 to i64
  %10 = getelementptr inbounds float, ptr %7, i64 %9
  %11 = load float, ptr %10, align 4, !tbaa !76
  ret float %11
}

; Function Attrs: inlinehint nounwind uwtable
define internal i32 @Hash_IntObjData1(ptr noundef %0, i32 noundef %1) #2 {
  %3 = alloca ptr, align 8
  %4 = alloca i32, align 4
  store ptr %0, ptr %3, align 8, !tbaa !96
  store i32 %1, ptr %4, align 4, !tbaa !8
  %5 = load ptr, ptr %3, align 8, !tbaa !96
  %6 = load i32, ptr %4, align 4, !tbaa !8
  %7 = call ptr @Hash_IntObj(ptr noundef %5, i32 noundef %6)
  %8 = getelementptr inbounds nuw %struct.Hash_IntObj_t_, ptr %7, i32 0, i32 1
  %9 = load i32, ptr %8, align 4, !tbaa !130
  ret i32 %9
}

; Function Attrs: inlinehint nounwind uwtable
define internal i32 @Hash_IntObjData0(ptr noundef %0, i32 noundef %1) #2 {
  %3 = alloca ptr, align 8
  %4 = alloca i32, align 4
  store ptr %0, ptr %3, align 8, !tbaa !96
  store i32 %1, ptr %4, align 4, !tbaa !8
  %5 = load ptr, ptr %3, align 8, !tbaa !96
  %6 = load i32, ptr %4, align 4, !tbaa !8
  %7 = call ptr @Hash_IntObj(ptr noundef %5, i32 noundef %6)
  %8 = getelementptr inbounds nuw %struct.Hash_IntObj_t_, ptr %7, i32 0, i32 0
  %9 = load i32, ptr %8, align 4, !tbaa !129
  ret i32 %9
}

; Function Attrs: inlinehint nounwind uwtable
define internal i32 @Hash_IntManEntryNum(ptr noundef %0) #2 {
  %2 = alloca ptr, align 8
  store ptr %0, ptr %2, align 8, !tbaa !96
  %3 = load ptr, ptr %2, align 8, !tbaa !96
  %4 = getelementptr inbounds nuw %struct.Hash_IntMan_t_, ptr %3, i32 0, i32 1
  %5 = load ptr, ptr %4, align 8, !tbaa !97
  %6 = call i32 @Vec_IntSize(ptr noundef %5)
  %7 = sdiv i32 %6, 4
  %8 = sub nsw i32 %7, 1
  ret i32 %8
}

; Function Attrs: nounwind uwtable
define void @Dam_PrintQue(ptr noundef %0) #0 {
  %2 = alloca ptr, align 8
  %3 = alloca i32, align 4
  %4 = alloca i32, align 4
  %5 = alloca i32, align 4
  store ptr %0, ptr %2, align 8, !tbaa !80
  call void @llvm.lifetime.start.p0(i64 4, ptr %3) #13
  %6 = call i32 (ptr, ...) @printf(ptr noundef @.str.18)
  store i32 1, ptr %3, align 4, !tbaa !8
  br label %7

7:                                                ; preds = %66, %1
  %8 = load i32, ptr %3, align 4, !tbaa !8
  %9 = load ptr, ptr %2, align 8, !tbaa !80
  %10 = getelementptr inbounds nuw %struct.Dam_Man_t_, ptr %9, i32 0, i32 10
  %11 = load ptr, ptr %10, align 8, !tbaa !88
  %12 = call i32 @Hash_IntManEntryNum(ptr noundef %11)
  %13 = icmp sle i32 %8, %12
  br i1 %13, label %14, label %69

14:                                               ; preds = %7
  call void @llvm.lifetime.start.p0(i64 4, ptr %4) #13
  %15 = load ptr, ptr %2, align 8, !tbaa !80
  %16 = getelementptr inbounds nuw %struct.Dam_Man_t_, ptr %15, i32 0, i32 10
  %17 = load ptr, ptr %16, align 8, !tbaa !88
  %18 = load i32, ptr %3, align 4, !tbaa !8
  %19 = call i32 @Hash_IntObjData0(ptr noundef %17, i32 noundef %18)
  store i32 %19, ptr %4, align 4, !tbaa !8
  call void @llvm.lifetime.start.p0(i64 4, ptr %5) #13
  %20 = load ptr, ptr %2, align 8, !tbaa !80
  %21 = getelementptr inbounds nuw %struct.Dam_Man_t_, ptr %20, i32 0, i32 10
  %22 = load ptr, ptr %21, align 8, !tbaa !88
  %23 = load i32, ptr %3, align 4, !tbaa !8
  %24 = call i32 @Hash_IntObjData1(ptr noundef %22, i32 noundef %23)
  store i32 %24, ptr %5, align 4, !tbaa !8
  %25 = load i32, ptr %3, align 4, !tbaa !8
  %26 = call i32 (ptr, ...) @printf(ptr noundef @.str.19, i32 noundef %25)
  %27 = load ptr, ptr %2, align 8, !tbaa !80
  %28 = getelementptr inbounds nuw %struct.Dam_Man_t_, ptr %27, i32 0, i32 5
  %29 = load ptr, ptr %28, align 8, !tbaa !117
  %30 = load i32, ptr %3, align 4, !tbaa !8
  %31 = call float @Vec_FltEntry(ptr noundef %29, i32 noundef %30)
  %32 = fpext float %31 to double
  %33 = call i32 (ptr, ...) @printf(ptr noundef @.str.14, double noundef %32)
  %34 = load i32, ptr %4, align 4, !tbaa !8
  %35 = call i32 @Abc_LitIsCompl(i32 noundef %34)
  %36 = icmp ne i32 %35, 0
  %37 = select i1 %36, i32 33, i32 32
  %38 = load i32, ptr %4, align 4, !tbaa !8
  %39 = call i32 @Abc_Lit2Var(i32 noundef %38)
  %40 = add nsw i32 97, %39
  %41 = sub nsw i32 %40, 1
  %42 = call i32 (ptr, ...) @printf(ptr noundef @.str.20, i32 noundef %37, i32 noundef %41)
  %43 = load ptr, ptr %2, align 8, !tbaa !80
  %44 = getelementptr inbounds nuw %struct.Dam_Man_t_, ptr %43, i32 0, i32 10
  %45 = load ptr, ptr %44, align 8, !tbaa !88
  %46 = load i32, ptr %3, align 4, !tbaa !8
  %47 = call i32 @Hash_IntObjData0(ptr noundef %45, i32 noundef %46)
  %48 = load ptr, ptr %2, align 8, !tbaa !80
  %49 = getelementptr inbounds nuw %struct.Dam_Man_t_, ptr %48, i32 0, i32 10
  %50 = load ptr, ptr %49, align 8, !tbaa !88
  %51 = load i32, ptr %3, align 4, !tbaa !8
  %52 = call i32 @Hash_IntObjData1(ptr noundef %50, i32 noundef %51)
  %53 = icmp slt i32 %47, %52
  %54 = select i1 %53, i32 42, i32 43
  %55 = call i32 (ptr, ...) @printf(ptr noundef @.str.21, i32 noundef %54)
  %56 = load i32, ptr %5, align 4, !tbaa !8
  %57 = call i32 @Abc_LitIsCompl(i32 noundef %56)
  %58 = icmp ne i32 %57, 0
  %59 = select i1 %58, i32 33, i32 32
  %60 = load i32, ptr %5, align 4, !tbaa !8
  %61 = call i32 @Abc_Lit2Var(i32 noundef %60)
  %62 = add nsw i32 97, %61
  %63 = sub nsw i32 %62, 1
  %64 = call i32 (ptr, ...) @printf(ptr noundef @.str.22, i32 noundef %59, i32 noundef %63)
  %65 = call i32 (ptr, ...) @printf(ptr noundef @.str.5)
  call void @llvm.lifetime.end.p0(i64 4, ptr %5) #13
  call void @llvm.lifetime.end.p0(i64 4, ptr %4) #13
  br label %66

66:                                               ; preds = %14
  %67 = load i32, ptr %3, align 4, !tbaa !8
  %68 = add nsw i32 %67, 1
  store i32 %68, ptr %3, align 4, !tbaa !8
  br label %7, !llvm.loop !151

69:                                               ; preds = %7
  call void @llvm.lifetime.end.p0(i64 4, ptr %3) #13
  ret void
}