; Function Attrs: nofree nounwind uwtable
define void @Dam_PrintQue(ptr noundef readonly captures(none) %0) local_unnamed_addr #8 {
  %puts = tail call i32 @puts(ptr nonnull dereferenceable(1) @str)
  %2 = getelementptr inbounds nuw i8, ptr %0, i64 80
  %3 = load ptr, ptr %2, align 8, !tbaa !89
  %4 = getelementptr i8, ptr %3, i64 8
  %.val1923 = load ptr, ptr %4, align 8, !tbaa !90
  %5 = getelementptr i8, ptr %.val1923, i64 4
  %.val19.val24 = load i32, ptr %5, align 4, !tbaa !3
  %.not.not25 = icmp sgt i32 %.val19.val24, 7
  br i1 %.not.not25, label %.lr.ph, label %._crit_edge

.lr.ph:                                           ; preds = %1
  %6 = getelementptr inbounds nuw i8, ptr %0, i64 40
  br label %7

7:                                                ; preds = %.lr.ph, %7
  %indvars.iv = phi i64 [ 1, %.lr.ph ], [ %indvars.iv.next, %7 ]
  %.val1927 = phi ptr [ %.val1923, %.lr.ph ], [ %.val19, %7 ]
  %8 = shl nsw i64 %indvars.iv, 2
  %9 = getelementptr i8, ptr %.val1927, i64 8
  %.val.i.i = load ptr, ptr %9, align 8, !tbaa !10
  %10 = getelementptr inbounds nuw i32, ptr %.val.i.i, i64 %8
  %11 = load i32, ptr %10, align 4, !tbaa !120
  %12 = getelementptr inbounds nuw i8, ptr %10, i64 4
  %13 = load i32, ptr %12, align 4, !tbaa !121
  %14 = trunc nuw nsw i64 %indvars.iv to i32
  %15 = tail call i32 (ptr, ...) @printf(ptr noundef nonnull dereferenceable(1) @.str.19, i32 noundef %14)
  %16 = load ptr, ptr %6, align 8, !tbaa !112
  %17 = getelementptr i8, ptr %16, i64 8
  %.val = load ptr, ptr %17, align 8, !tbaa !62
  %18 = getelementptr inbounds nuw float, ptr %.val, i64 %indvars.iv
  %19 = load float, ptr %18, align 4, !tbaa !65
  %20 = fpext float %19 to double
  %21 = tail call i32 (ptr, ...) @printf(ptr noundef nonnull dereferenceable(1) @.str.14, double noundef %20)
  %22 = and i32 %11, 1
  %23 = or disjoint i32 %22, 32
  %24 = ashr i32 %11, 1
  %25 = add nsw i32 %24, 96
  %26 = tail call i32 (ptr, ...) @printf(ptr noundef nonnull dereferenceable(1) @.str.20, i32 noundef %23, i32 noundef %25)
  %27 = load ptr, ptr %2, align 8, !tbaa !89
  %28 = getelementptr inbounds nuw i8, ptr %27, i64 8
  %29 = load ptr, ptr %28, align 8, !tbaa !90
  %30 = getelementptr i8, ptr %29, i64 8
  %.val.i.i21 = load ptr, ptr %30, align 8, !tbaa !10
  %31 = getelementptr inbounds nuw i32, ptr %.val.i.i21, i64 %8
  %32 = load i32, ptr %31, align 4, !tbaa !120
  %33 = getelementptr inbounds nuw i8, ptr %31, i64 4
  %34 = load i32, ptr %33, align 4, !tbaa !121
  %35 = icmp slt i32 %32, %34
  %36 = select i1 %35, i32 42, i32 43
  %37 = tail call i32 (ptr, ...) @printf(ptr noundef nonnull dereferenceable(1) @.str.21, i32 noundef %36)
  %38 = and i32 %13, 1
  %39 = or disjoint i32 %38, 32
  %40 = ashr i32 %13, 1
  %41 = add nsw i32 %40, 96
  %42 = tail call i32 (ptr, ...) @printf(ptr noundef nonnull dereferenceable(1) @.str.22, i32 noundef %39, i32 noundef %41)
  %putchar = tail call i32 @putchar(i32 10)
  %indvars.iv.next = add nuw nsw i64 %indvars.iv, 1
  %43 = load ptr, ptr %2, align 8, !tbaa !89
  %44 = getelementptr i8, ptr %43, i64 8
  %.val19 = load ptr, ptr %44, align 8, !tbaa !90
  %45 = getelementptr i8, ptr %.val19, i64 4
  %.val19.val = load i32, ptr %45, align 4, !tbaa !3
  %46 = sdiv i32 %.val19.val, 4
  %47 = sext i32 %46 to i64
  %.not.not = icmp slt i64 %indvars.iv.next, %47
  br i1 %.not.not, label %7, label %._crit_edge, !llvm.loop !139

._crit_edge:                                      ; preds = %7, %1
  ret void
}